target datalayout = "e-m:e-p270:32:32-p271:32:32-p272:64:64-i64:64-i128:128-f80:128-n8:16:32:64-S128"
target triple = "x86_64-pc-linux-gnu"

%struct.opj_tcd_band = type { i32, i32, i32, i32, i32, ptr, i32, i32, float }

; Function Attrs: nounwind uwtable
define hidden i32 @opj_tcd_is_band_empty(ptr noundef %0) #0 {
  %2 = alloca ptr, align 8
  store ptr %0, ptr %2, align 8, !tbaa !44
  %3 = load ptr, ptr %2, align 8, !tbaa !44
  %4 = getelementptr inbounds nuw %struct.opj_tcd_band, ptr %3, i32 0, i32 2
  %5 = load i32, ptr %4, align 8, !tbaa !133
  %6 = load ptr, ptr %2, align 8, !tbaa !44
  %7 = getelementptr inbounds nuw %struct.opj_tcd_band, ptr %6, i32 0, i32 0
  %8 = load i32, ptr %7, align 8, !tbaa !131
  %9 = sub nsw i32 %5, %8
  %10 = icmp eq i32 %9, 0
  br i1 %10, label %20, label %11

11:                                               ; preds = %1
  %12 = load ptr, ptr %2, align 8, !tbaa !44
  %13 = getelementptr inbounds nuw %struct.opj_tcd_band, ptr %12, i32 0, i32 3
  %14 = load i32, ptr %13, align 4, !tbaa !134
  %15 = load ptr, ptr %2, align 8, !tbaa !44
  %16 = getelementptr inbounds nuw %struct.opj_tcd_band, ptr %15, i32 0, i32 1
  %17 = load i32, ptr %16, align 4, !tbaa !132
  %18 = sub nsw i32 %14, %17
  %19 = icmp eq i32 %18, 0
  br label %20

20:                                               ; preds = %11, %1
  %21 = phi i1 [ true, %1 ], [ %19, %11 ]
  %22 = zext i1 %21 to i32
  ret i32 %22
}