; Function Attrs: mustprogress nofree norecurse nosync nounwind willreturn memory(argmem: read) uwtable
define hidden range(i32 0, 2) i32 @opj_tcd_is_band_empty(ptr noundef readonly captures(none) %0) local_unnamed_addr #9 {
  %2 = getelementptr inbounds nuw i8, ptr %0, i64 8
  %3 = load i32, ptr %2, align 8, !tbaa !110
  %4 = load i32, ptr %0, align 8, !tbaa !108
  %5 = icmp eq i32 %3, %4
  br i1 %5, label %13, label %6

6:                                                ; preds = %1
  %7 = getelementptr inbounds nuw i8, ptr %0, i64 12
  %8 = load i32, ptr %7, align 4, !tbaa !111
  %9 = getelementptr inbounds nuw i8, ptr %0, i64 4
  %10 = load i32, ptr %9, align 4, !tbaa !109
  %11 = icmp eq i32 %8, %10
  %12 = zext i1 %11 to i32
  br label %13

13:                                               ; preds = %6, %1
  %14 = phi i32 [ 1, %1 ], [ %12, %6 ]
  ret i32 %14
}